(lp0
(lp1
(dp2
I0
(lp3
I1
aI3
aI5
aI19
aI0
aI4
aI7
aI10
aI21
aI26
aI28
aI67
aI70
aI187
aI6
aI22
aI2
aI9
aI11
aI12
aI13
aI14
aI15
aI16
aI17
aI18
aI20
aI23
aI24
aI25
aI27
aI29
aI30
aI31
aI32
aI34
aI35
aI38
aI39
aI41
aI43
aI71
aI98
aI56
aI57
aI60
aI69
aI107
asa(dp4
I1
(lp5
I14
aI15
aI11
aI22
aI30
asa(dp6
I1
(lp7
I68
aI105
aI73
aI88
aI113
aI121
aI123
aI143
aI148
aI152
aI198
aI204
aI210
aI218
aI36
aI43
aI44
aI48
aI49
aI51
aI52
aI53
aI78
aI89
aI131
aI146
aI181
aI125
aI212
aI80
aI135
aI149
aI157
aI158
aI171
aI173
aI197
aI220
aI223
aI95
aI108
aI147
aI153
aI156
aI159
aI161
aI167
aI208
aI215
aI219
aI227
asaa(lp8
(dp9
I0
(lp10
I8
aI61
aI55
aI58
aI59
aI62
aI63
aI64
aI65
aI66
aI68
aI72
aI114
aI119
aI121
aI124
aI132
aI134
aI136
asa(dp11
I1
(lp12
I1
aI3
aI10
aI19
aI29
aI34
aI35
aI74
aI76
aI87
aI221
aI77
aI84
asag6
aa(lp13
(dp14
I0
(lp15
I80
aI86
aI74
aI75
aI87
aI88
aI90
aI222
aI232
asaa(lp16
(dp17
I0
(lp18
I92
aI99
aI101
aI102
aI111
aI93
aI105
aI108
aI97
aI100
aI110
aI94
aI96
aI106
aI113
aI142
aI163
aI231
aI130
aI138
aI170
aI174
asaa(lp19
(dp20
I0
(lp21
I123
aI149
aI156
aI167
aI146
aI147
aI148
aI150
aI151
aI153
aI155
aI157
aI158
aI159
aI160
aI161
aI162
aI166
aI168
aI169
aI171
aI173
aI126
aI131
aI140
aI152
aI180
aI186
aI36
aI44
aI50
aI133
aI181
aI164
aI175
aI184
aI189
asa(dp22
I1
(lp23
I104
aI110
aI133
aI145
aI154
aI166
aI93
aI140
aI162
aI127
aI128
aI170
aI72
aI216
aI94
aI100
aI114
aI225
asa(dp24
I2
(lp25
I3
aI6
aI8
aI20
aI25
aI65
aI68
aI69
aI193
aI92
aI95
aI99
aI101
aI102
asa(dp26
I2
(lp27
I159
aI163
aI49
aI198
aI60
aI126
aI129
aI130
aI132
aI141
aI145
aI146
aI156
aI169
aI175
aI180
aI181
aI186
aI190
aI192
aI195
aI200
aI208
aI90
aI118
aI127
aI202
aI209
aI40
aI71
aI82
aI184
aI189
aI197
aI211
aI222
aI206
aI212
aI140
aI213
aI75
aI236
asa(dp28
I3
(lp29
I160
aI164
aI171
aI149
aI150
aI158
aI168
aI169
aI170
aI172
aI174
aI132
aI184
aI52
aI79
aI134
aI185
aI5
aI46
aI215
asa(dp30
I4
(lp31
I55
aI110
aI116
aI128
asaa(lp32
(dp33
I0
(lp34
I33
aI37
aI40
aI45
aI46
aI47
aI48
aI49
aI51
aI52
aI53
aI54
aI81
aI91
aI117
aI172
aI192
aI128
aI144
aI194
aI42
aI73
aI84
aI85
aI176
aI177
aI178
aI179
aI182
aI183
aI185
aI190
aI191
aI195
aI200
aI205
aI206
aI209
aI211
aI216
aI217
aI165
aI202
aI118
aI196
aI203
asa(dp35
I1
(lp36
I38
aI144
aI75
aI85
aI111
aI155
aI168
aI193
aI199
aI226
aI6
aI37
aI39
aI46
aI47
aI211
aI109
aI150
aI165
aI224
asaa(lp37
(dp38
I0
(lp39
I116
aI197
aI208
aI215
aI219
aI76
aI79
aI221
asag22
ag24
ag26
ag28
ag30
aa(lp40
(dp41
I0
(lp42
I122
aI125
aI145
aI204
aI210
aI120
aI127
aI139
aI141
aI199
aI201
aI207
aI212
aI218
aI188
aI213
aI115
aI135
aI198
aI214
aI129
aI137
aI143
aI193
aI224
aI95
aI103
aI104
aI109
aI112
aI154
aI223
aI226
asag22
ag24
ag26
ag28
ag30
aa(lp43
(dp44
I0
(lp45
I78
aI82
aI83
aI89
aI220
aI225
aI227
aI228
aI230
aI77
aI229
asag22
ag24
ag26
ag28
ag30
aa(lp46
(dp47
I1
(lp48
I7
aI12
aI13
aI17
aI20
aI21
aI23
aI42
aI66
aI5
aI25
aI0
aI2
aI4
aI26
aI28
aI32
aI40
aI69
aI70
aI187
aI57
aI59
aI62
aI65
aI117
aI130
asag6
aa(lp49
(dp50
I1
(lp51
I8
aI60
aI58
aI64
aI71
aI119
aI122
aI132
aI134
aI141
aI16
aI18
aI24
aI27
aI31
aI83
aI96
aI90
aI91
aI92
aI97
aI101
aI222
asag6
aa(lp52
(dp53
I1
(lp54
I102
aI103
aI106
aI55
aI56
aI112
aI9
aI45
aI82
aI115
aI195
aI206
aI107
aI118
aI160
aI126
aI142
asa(dp55
I2
(lp56
I116
aI125
aI147
aI210
aI185
aI215
aI128
aI205
aI218
aI194
aI219
aI115
aI204
aI220
aI214
aI221
aI225
asa(dp57
I3
(lp58
I66
aI86
aI88
aI115
aI129
aI130
aI145
aI167
aI190
aI198
aI202
aI212
aI218
aI40
aI50
aI71
aI82
aI83
aI180
aI181
aI182
aI183
aI186
aI187
aI189
aI192
aI194
aI195
aI204
aI209
aI213
aI217
aI220
aI228
aI118
aI197
aI207
aI223
aI229
asaa(lp59
(dp60
I1
(lp61
I54
aI61
aI63
aI67
aI151
asag6
aa(lp62
(dp63
I1
(lp64
I174
aI184
aI124
aI129
aI164
aI175
aI180
aI186
aI194
aI202
aI136
aI138
aI163
aI189
aI190
aI33
aI50
aI172
aI176
aI177
aI192
aI41
aI185
aI200
aI217
aI79
aI86
aI116
aI196
aI203
aI214
asag55
ag57
aa(lp65
(dp66
I1
(lp67
I98
aI99
aI120
aI139
aI169
aI137
aI201
aI207
asa(dp68
I2
(lp69
I93
aI100
aI105
aI108
aI97
aI110
aI111
aI94
aI96
aI106
aI109
aI113
aI144
aI167
aI238
aI57
aI63
aI67
aI114
aI53
aI66
aI70
aI119
aI135
aI138
aI143
aI168
aI199
aI230
asa(dp70
I3
(lp71
I70
aI81
aI177
asa(dp72
I4
(lp73
I71
aI75
aI202
aI47
aI48
aI49
aI50
aI51
aI52
aI54
aI56
aI57
aI58
aI60
aI61
aI64
aI96
aI103
aI108
aI113
aI122
aI124
aI131
aI83
aI85
aI86
aI97
aI99
asaa(lp74
(dp75
I1
(lp76
I81
aI182
aI183
aI188
aI191
aI205
aI213
aI178
aI179
aI209
asa(dp77
I2
(lp78
I72
aI73
aI74
aI77
aI78
aI80
aI81
aI85
aI86
aI87
aI88
aI89
aI203
aI226
aI227
aI232
aI234
aI235
aI237
aI239
aI150
aI154
aI161
aI188
aI223
aI136
aI216
aI224
aI76
aI228
aI196
aI217
aI231
aI103
aI104
aI112
aI158
aI229
aI233
asag57
aa(lp79
(dp80
I2
(lp81
I1
aI18
aI4
aI5
aI10
aI21
aI24
aI11
aI12
aI13
aI14
aI15
aI16
aI17
aI19
aI22
aI23
aI26
aI29
aI30
aI31
aI33
aI34
aI37
aI39
aI41
aI84
aI98
aI149
aI0
aI9
aI27
aI148
aI2
aI28
aI54
aI56
aI58
aI61
aI62
aI64
aI107
aI121
aI124
aI133
aI137
asag26
ag28
ag30
aa(lp82
(dp83
I2
(lp84
I7
aI59
asag70
ag72
aa(lp85
(dp86
I2
(lp87
I55
aI131
aI139
aI120
aI122
aI142
aI207
aI123
aI153
aI157
aI162
aI164
aI178
aI179
asa(dp88
I3
(lp89
I2
aI7
aI14
aI26
aI31
aI59
aI68
aI53
aI60
aI62
aI124
aI126
aI131
aI140
aI173
aI179
aI200
aI29
aI33
aI34
aI84
aI93
aI94
aI96
aI97
aI105
aI108
aI110
aI165
aI235
aI54
aI55
aI67
aI107
asag72
aa(lp90
(dp91
I2
(lp92
I165
aI173
aI83
aI182
aI183
aI191
aI201
asag28
ag30
aa(lp93
(dp94
I2
(lp95
I160
aI170
aI171
aI151
aI152
aI155
aI166
aI172
aI174
aI176
aI32
aI35
aI36
aI38
aI42
aI43
aI44
aI45
aI46
aI47
aI48
aI50
aI51
aI52
aI79
aI91
aI117
aI134
aI177
aI187
asag57
aa(lp96
(dp97
I3
(lp98
I0
aI6
aI9
aI11
aI12
aI13
aI15
aI16
aI17
aI19
aI20
aI22
aI23
aI25
aI27
aI30
aI37
aI39
aI41
aI69
aI92
aI98
aI100
aI148
aI1
aI3
aI4
aI10
aI18
aI21
aI24
aI28
aI191
aI36
aI38
aI57
aI121
aI133
aI135
aI142
asag30
aa(lp99
(dp100
I3
(lp101
I95
aI99
aI101
aI103
aI104
aI106
aI109
aI112
aI113
aI143
aI157
aI226
aI230
aI58
aI61
aI64
aI119
aI63
aI76
aI114
aI120
aI141
aI159
aI166
aI80
aI85
aI128
aI236
aI123
aI152
aI153
aI156
aI161
aI162
aI163
aI176
asag30
aa(lp102
(dp103
I3
(lp104
I102
aI111
aI8
aI32
aI35
aI42
aI43
aI44
aI45
aI47
aI48
aI49
aI51
aI91
aI117
aI175
aI196
aI199
aI210
aI65
aI147
aI125
aI127
aI139
aI208
aI214
aI221
aI56
aI90
aI122
aI136
aI203
aI211
aI219
aI232
aI72
aI73
aI74
aI77
aI89
aI201
aI224
aI231
aI234
aI78
aI146
aI154
aI205
aI222
aI225
asaa(lp105
(dp106
I3
(lp107
I116
aI144
aI151
aI155
aI178
aI188
aI193
aI206
aI216
aI137
aI138
aI227
aI75
aI87
aI233
asag30
aa(lp108
(dp109
I4
(lp110
I1
aI2
aI3
aI4
aI5
aI7
aI8
aI9
aI10
aI11
aI19
aI21
aI22
aI25
aI26
aI28
aI29
aI46
aI53
aI59
aI62
aI63
aI123
aI136
aI165
aI176
aI81
aI82
aI88
aI89
aI90
aI91
aI92
aI93
aI94
aI95
aI98
aI100
aI101
aI102
aI132
aI146
aI155
aI206
aI209
asaa(lp111
(dp112
I4
(lp113
I12
aI13
aI14
aI15
aI16
aI17
aI18
aI20
aI23
aI24
aI27
aI30
aI31
aI32
aI34
aI35
aI37
aI38
aI40
aI74
aI87
aI137
aI115
aI118
aI119
aI120
aI121
aI126
aI127
aI129
aI133
aI134
aI144
aI156
aI157
aI163
aI168
aI169
aI171
aI173
aI175
aI177
aI180
aI181
aI189
aI207
aI112
aI138
aI139
aI140
aI141
aI142
aI143
aI145
aI147
aI148
aI149
aI150
aI151
aI152
aI153
aI154
aI158
aI159
aI160
aI161
aI162
aI164
aI166
aI167
asaa(lp114
(dp115
I4
(lp116
I6
aI42
aI196
asaa(lp117
(dp118
I4
(lp119
I36
aI44
aI174
aI178
aI187
aI200
aI41
aI45
aI84
aI172
aI179
aI33
aI43
aI106
aI182
aI192
asaa(lp120
(dp121
I4
(lp122
I105
aI193
aI194
asaa(lp123
(dp124
I4
(lp125
I111
aI125
aI199
aI201
asaa(lp126
(dp127
I4
(lp128
I104
aI185
aI0
aI67
aI68
aI69
aI70
aI72
aI73
aI77
aI79
aI184
aI203
aI204
aI205
aI208
aI210
aI211
aI212
aI213
asaa(lp129
(dp130
I4
(lp131
I39
aI170
aI80
aI107
aI183
aI186
aI190
aI109
aI130
aI188
aI114
aI135
aI191
aI195
aI117
aI197
aI65
aI66
aI76
aI78
aI198
aI214
asaa.