(lp0
(lp1
(dp2
I0
(lp3
I8
aI23
aI30
aI33
aI75
asa(dp4
I1
(lp5
I1
aI16
aI25
aI43
aI48
aI54
aI55
aI65
aI67
asa(dp6
I2
(lp7
I2
aI3
aI18
aI55
asa(dp8
I3
(lp9
I11
aI30
aI44
aI76
aI28
aI34
aI50
aI69
aI70
asa(dp10
I4
(lp11
I12
aI32
aI4
aI17
aI19
aI26
aI31
aI38
aI43
aI46
aI60
aI64
asaa(lp12
(dp13
I0
(lp14
I15
aI29
aI35
aI38
aI60
aI70
asa(dp15
I1
(lp16
I14
aI15
aI36
aI50
aI59
asa(dp17
I2
(lp18
I29
aI45
aI70
aI24
aI47
aI9
aI57
aI30
aI37
aI44
aI61
aI19
aI35
aI64
aI20
aI32
aI33
aI38
aI43
aI63
aI68
aI77
aI22
aI76
aI80
asa(dp19
I3
(lp20
I3
aI43
aI23
aI29
aI40
aI52
aI71
aI10
aI56
aI77
aI32
aI37
aI66
aI75
asa(dp21
I3
(lp22
I13
aI14
aI36
aI45
aI48
aI51
aI57
aI2
aI54
aI12
aI60
aI78
asaa(lp23
(dp24
I0
(lp25
I5
aI7
aI28
aI39
aI47
asag4
ag6
ag8
ag10
aa(lp26
(dp27
I0
(lp28
I6
aI45
aI51
aI73
asag15
ag17
ag19
ag21
aa(lp29
(dp30
I0
(lp31
I9
aI12
aI14
aI54
aI57
aI3
aI49
aI53
aI61
asa(dp32
I1
(lp33
I2
aI3
aI56
aI7
aI10
aI17
aI19
aI22
aI23
aI41
aI45
aI51
aI62
aI72
aI9
aI24
aI29
aI31
aI34
aI37
aI42
aI52
aI58
aI69
aI74
aI79
aI81
aI27
aI38
aI68
asa(dp34
I2
(lp35
I1
aI8
aI42
aI53
aI65
aI67
aI78
aI14
aI52
aI16
aI69
aI82
aI10
aI74
aI79
asa(dp36
I3
(lp37
I16
aI58
aI39
aI67
aI73
aI1
aI4
aI5
aI9
aI17
aI24
aI38
aI41
aI46
aI64
aI68
aI72
asa(dp38
I4
(lp39
I23
aI25
aI35
aI50
aI62
asaa(lp40
(dp41
I0
(lp42
I10
aI31
aI40
aI76
aI65
aI69
aI71
asag15
ag17
ag19
ag21
aa(lp43
(dp44
I0
(lp45
I1
aI2
aI32
aI56
aI27
aI44
aI13
aI37
aI50
aI59
aI55
aI72
aI77
asag15
ag17
ag19
ag21
aa(lp46
(dp47
I0
(lp48
I19
aI34
aI63
aI74
aI80
aI43
aI64
aI66
aI68
aI20
aI21
aI36
aI46
aI67
aI41
aI58
aI78
asag15
ag17
ag19
ag21
aa(lp49
(dp50
I0
(lp51
I0
aI16
aI18
aI25
aI26
aI48
aI62
aI4
aI11
aI17
aI22
aI24
aI42
aI52
aI79
asag15
ag17
ag19
ag21
aa(lp52
(dp53
I1
(lp54
I0
aI26
asa(dp55
I2
(lp56
I23
aI25
aI27
aI34
aI28
aI39
aI41
aI51
aI4
aI6
aI12
aI56
aI72
aI75
aI7
aI11
aI31
aI40
aI81
asa(dp57
I3
(lp58
I7
aI15
aI55
asag21
aa(lp59
(dp60
I1
(lp61
I6
aI47
aI53
aI57
aI60
aI4
aI13
aI49
aI61
aI63
asa(dp62
I2
(lp63
I36
aI58
aI13
aI26
aI46
aI48
aI49
aI60
aI62
asa(dp64
I3
(lp65
I0
aI19
aI25
aI53
aI26
aI27
aI8
aI31
aI33
aI42
aI62
aI74
asag38
aa(lp66
(dp67
I1
(lp68
I5
aI11
aI20
aI35
aI64
aI70
asag62
ag64
ag38
aa(lp69
(dp70
I1
(lp71
I39
aI40
aI46
aI73
aI76
aI21
aI33
aI44
aI75
aI18
aI77
aI8
aI12
aI28
aI32
aI66
aI71
aI80
asag62
ag64
ag38
aa(lp72
(dp73
I1
(lp74
I30
aI78
asag6
ag8
ag10
aa(lp75
(dp76
I2
(lp77
I5
aI50
aI59
aI71
aI73
asa(dp78
I3
(lp79
I21
aI49
aI65
asag10
aa(lp80
(dp81
I2
(lp82
I21
aI66
asag57
ag21
aa(lp83
(dp84
I2
(lp85
I0
aI15
aI17
aI54
asag8
ag10
aa(lp86
(dp87
I3
(lp88
I6
aI18
aI22
aI79
aI47
aI59
aI61
aI20
aI35
aI63
asag21
aa(lp89
(dp90
I4
(lp91
I3
aI7
aI10
aI14
aI16
aI20
aI27
aI61
aI71
asaa(lp92
(dp93
I4
(lp94
I1
aI2
aI47
aI69
aI8
aI49
asaa(lp95
(dp96
I4
(lp97
I22
aI41
aI42
aI44
aI51
aI53
aI36
aI52
asaa(lp98
(dp99
I4
(lp100
I9
aI18
aI45
aI55
aI56
aI59
asaa(lp101
(dp102
I4
(lp103
I11
aI40
aI48
aI33
aI57
asaa(lp104
(dp105
I4
(lp106
I6
aI13
aI24
aI30
aI5
aI28
aI29
aI37
aI54
aI66
aI67
aI21
aI58
aI65
aI70
asaa(lp107
(dp108
I4
(lp109
I0
aI15
aI34
aI39
aI63
aI68
asaa.